target datalayout = "e-m:e-p270:32:32-p271:32:32-p272:64:64-i64:64-i128:128-f80:128-n8:16:32:64-S128"
target triple = "x86_64-pc-linux-gnu"

%"struct.nanobind::detail::arg_data" = type { ptr, ptr, ptr, ptr, i8 }
%struct._object = type { i64, ptr }
%struct.PyVarObject = type { %struct._object, i64 }
%"struct.nanobind::detail::func_data_prelim" = type { [3 x ptr], ptr, ptr, ptr, ptr, i32, i16, i16, ptr, ptr, ptr, [0 x %"struct.nanobind::detail::arg_data"] }
%"struct.nanobind::detail::func_data" = type { %"struct.nanobind::detail::func_data_prelim", ptr, ptr }

; Function Attrs: alwaysinline mustprogress nounwind uwtable
define linkonce_odr hidden noundef ptr @_ZN8nanobind6detail12nb_func_dataEPv(ptr noundef %0) #2 comdat {
  %2 = alloca ptr, align 8
  store ptr %0, ptr %2, align 8
  %3 = load ptr, ptr %2, align 8
  %4 = getelementptr inbounds nuw i8, ptr %3, i64 40
  ret ptr %4
}

; Function Attrs: mustprogress uwtable
define hidden noundef i32 @_ZN8nanobind6detail16nb_func_traverseEP7_objectPFiS2_PvES3_(ptr noundef %0, ptr noundef %1, ptr noundef %2) #0 {
  %4 = alloca i32, align 4
  %5 = alloca ptr, align 8
  %6 = alloca ptr, align 8
  %7 = alloca ptr, align 8
  %8 = alloca i64, align 8
  %9 = alloca ptr, align 8
  %10 = alloca i64, align 8
  %11 = alloca i32, align 4
  %12 = alloca i64, align 8
  %13 = alloca i32, align 4
  store ptr %0, ptr %5, align 8
  store ptr %1, ptr %6, align 8
  store ptr %2, ptr %7, align 8
  call void @llvm.lifetime.start.p0(i64 8, ptr %8) #22
  %14 = load ptr, ptr %5, align 8
  %15 = getelementptr inbounds nuw %struct.PyVarObject, ptr %14, i32 0, i32 1
  %16 = load i64, ptr %15, align 8
  store i64 %16, ptr %8, align 8
  %17 = load i64, ptr %8, align 8
  %18 = icmp ne i64 %17, 0
  br i1 %18, label %19, label %92

19:                                               ; preds = %3
  call void @llvm.lifetime.start.p0(i64 8, ptr %9) #22
  %20 = load ptr, ptr %5, align 8
  %21 = call noundef ptr @_ZN8nanobind6detail12nb_func_dataEPv(ptr noundef %20)
  store ptr %21, ptr %9, align 8
  call void @llvm.lifetime.start.p0(i64 8, ptr %10) #22
  store i64 0, ptr %10, align 8
  br label %22

22:                                               ; preds = %83, %19
  %23 = load i64, ptr %10, align 8
  %24 = load i64, ptr %8, align 8
  %25 = icmp ult i64 %23, %24
  br i1 %25, label %27, label %26

26:                                               ; preds = %22
  store i32 2, ptr %11, align 4
  br label %86

27:                                               ; preds = %22
  %28 = load ptr, ptr %9, align 8
  %29 = getelementptr inbounds nuw %"struct.nanobind::detail::func_data_prelim", ptr %28, i32 0, i32 5
  %30 = load i32, ptr %29, align 8
  %31 = and i32 %30, 128
  %32 = icmp ne i32 %31, 0
  br i1 %32, label %33, label %80

33:                                               ; preds = %27
  call void @llvm.lifetime.start.p0(i64 8, ptr %12) #22
  store i64 0, ptr %12, align 8
  br label %34

34:                                               ; preds = %74, %33
  %35 = load i64, ptr %12, align 8
  %36 = load ptr, ptr %9, align 8
  %37 = getelementptr inbounds nuw %"struct.nanobind::detail::func_data_prelim", ptr %36, i32 0, i32 6
  %38 = load i16, ptr %37, align 4
  %39 = zext i16 %38 to i64
  %40 = icmp ult i64 %35, %39
  br i1 %40, label %42, label %41

41:                                               ; preds = %34
  store i32 5, ptr %11, align 4
  br label %77

42:                                               ; preds = %34
  br label %43

43:                                               ; preds = %42
  %44 = load ptr, ptr %9, align 8
  %45 = getelementptr inbounds nuw %"struct.nanobind::detail::func_data", ptr %44, i32 0, i32 1
  %46 = load ptr, ptr %45, align 8
  %47 = load i64, ptr %12, align 8
  %48 = getelementptr inbounds nuw %"struct.nanobind::detail::arg_data", ptr %46, i64 %47
  %49 = getelementptr inbounds nuw %"struct.nanobind::detail::arg_data", ptr %48, i32 0, i32 3
  %50 = load ptr, ptr %49, align 8
  %51 = icmp ne ptr %50, null
  br i1 %51, label %52, label %71

52:                                               ; preds = %43
  call void @llvm.lifetime.start.p0(i64 4, ptr %13) #22
  %53 = load ptr, ptr %6, align 8
  %54 = load ptr, ptr %9, align 8
  %55 = getelementptr inbounds nuw %"struct.nanobind::detail::func_data", ptr %54, i32 0, i32 1
  %56 = load ptr, ptr %55, align 8
  %57 = load i64, ptr %12, align 8
  %58 = getelementptr inbounds nuw %"struct.nanobind::detail::arg_data", ptr %56, i64 %57
  %59 = getelementptr inbounds nuw %"struct.nanobind::detail::arg_data", ptr %58, i32 0, i32 3
  %60 = load ptr, ptr %59, align 8
  %61 = load ptr, ptr %7, align 8
  %62 = call noundef i32 %53(ptr noundef %60, ptr noundef %61)
  store i32 %62, ptr %13, align 4
  %63 = load i32, ptr %13, align 4
  %64 = icmp ne i32 %63, 0
  br i1 %64, label %65, label %67

65:                                               ; preds = %52
  %66 = load i32, ptr %13, align 4
  store i32 %66, ptr %4, align 4
  store i32 1, ptr %11, align 4
  br label %68

67:                                               ; preds = %52
  store i32 0, ptr %11, align 4
  br label %68

68:                                               ; preds = %67, %65
  call void @llvm.lifetime.end.p0(i64 4, ptr %13) #22
  %69 = load i32, ptr %11, align 4
  switch i32 %69, label %77 [
    i32 0, label %70
  ]

70:                                               ; preds = %68
  br label %71

71:                                               ; preds = %70, %43
  br label %72

72:                                               ; preds = %71
  br label %73

73:                                               ; preds = %72
  br label %74

74:                                               ; preds = %73
  %75 = load i64, ptr %12, align 8
  %76 = add i64 %75, 1
  store i64 %76, ptr %12, align 8
  br label %34, !llvm.loop !3

77:                                               ; preds = %68, %41
  call void @llvm.lifetime.end.p0(i64 8, ptr %12) #22
  %78 = load i32, ptr %11, align 4
  switch i32 %78, label %86 [
    i32 5, label %79
  ]

79:                                               ; preds = %77
  br label %80

80:                                               ; preds = %79, %27
  %81 = load ptr, ptr %9, align 8
  %82 = getelementptr inbounds nuw %"struct.nanobind::detail::func_data", ptr %81, i32 1
  store ptr %82, ptr %9, align 8
  br label %83

83:                                               ; preds = %80
  %84 = load i64, ptr %10, align 8
  %85 = add i64 %84, 1
  store i64 %85, ptr %10, align 8
  br label %22, !llvm.loop !5

86:                                               ; preds = %77, %26
  call void @llvm.lifetime.end.p0(i64 8, ptr %10) #22
  %87 = load i32, ptr %11, align 4
  switch i32 %87, label %89 [
    i32 2, label %88
  ]

88:                                               ; preds = %86
  store i32 0, ptr %11, align 4
  br label %89

89:                                               ; preds = %88, %86
  call void @llvm.lifetime.end.p0(i64 8, ptr %9) #22
  %90 = load i32, ptr %11, align 4
  switch i32 %90, label %93 [
    i32 0, label %91
  ]

91:                                               ; preds = %89
  br label %92

92:                                               ; preds = %91, %3
  store i32 0, ptr %4, align 4
  store i32 1, ptr %11, align 4
  br label %93

93:                                               ; preds = %92, %89
  call void @llvm.lifetime.end.p0(i64 8, ptr %8) #22
  %94 = load i32, ptr %4, align 4
  ret i32 %94
}