; Function Attrs: mustprogress uwtable
define hidden noundef i32 @_ZN8nanobind6detail16nb_func_traverseEP7_objectPFiS2_PvES3_(ptr noundef readonly captures(none) %0, ptr noundef readonly captures(none) %1, ptr noundef %2) local_unnamed_addr #0 {
  %4 = getelementptr inbounds nuw i8, ptr %0, i64 16
  %5 = load i64, ptr %4, align 8
  %.not = icmp eq i64 %5, 0
  br i1 %.not, label %.thread41, label %6

6:                                                ; preds = %3
  %7 = getelementptr inbounds nuw i8, ptr %0, i64 40
  br label %8

8:                                                ; preds = %6, %.loopexit
  %.03047 = phi i64 [ 0, %6 ], [ %27, %.loopexit ]
  %.03146 = phi ptr [ %7, %6 ], [ %26, %.loopexit ]
  %9 = getelementptr inbounds nuw i8, ptr %.03146, i64 56
  %10 = load i32, ptr %9, align 8
  %11 = and i32 %10, 128
  %.not35 = icmp eq i32 %11, 0
  br i1 %.not35, label %.loopexit, label %.preheader

.preheader:                                       ; preds = %8
  %12 = getelementptr inbounds nuw i8, ptr %.03146, i64 60
  %13 = load i16, ptr %12, align 4
  %.not3844.not = icmp eq i16 %13, 0
  br i1 %.not3844.not, label %.loopexit, label %.lr.ph

.lr.ph:                                           ; preds = %.preheader
  %14 = getelementptr inbounds nuw i8, ptr %.03146, i64 88
  br label %15

15:                                               ; preds = %.lr.ph, %22
  %16 = phi i16 [ %13, %.lr.ph ], [ %23, %22 ]
  %.02645 = phi i64 [ 0, %.lr.ph ], [ %24, %22 ]
  %17 = load ptr, ptr %14, align 8
  %18 = getelementptr inbounds nuw %"struct.nanobind::detail::arg_data", ptr %17, i64 %.02645, i32 3
  %19 = load ptr, ptr %18, align 8
  %.not36 = icmp eq ptr %19, null
  br i1 %.not36, label %22, label %20

20:                                               ; preds = %15
  %21 = tail call noundef i32 %1(ptr noundef nonnull %19, ptr noundef %2)
  %.not37 = icmp eq i32 %21, 0
  br i1 %.not37, label %._crit_edge, label %.thread41

._crit_edge:                                      ; preds = %20
  %.pre = load i16, ptr %12, align 4
  br label %22

22:                                               ; preds = %._crit_edge, %15
  %23 = phi i16 [ %.pre, %._crit_edge ], [ %16, %15 ]
  %24 = add nuw nsw i64 %.02645, 1
  %25 = zext i16 %23 to i64
  %.not38 = icmp samesign ult i64 %24, %25
  br i1 %.not38, label %15, label %.loopexit, !llvm.loop !3

.loopexit:                                        ; preds = %22, %.preheader, %8
  %26 = getelementptr inbounds nuw i8, ptr %.03146, i64 104
  %27 = add nuw i64 %.03047, 1
  %exitcond.not = icmp eq i64 %27, %5
  br i1 %exitcond.not, label %.thread41, label %8, !llvm.loop !5

.thread41:                                        ; preds = %.loopexit, %20, %3
  %.7 = phi i32 [ 0, %3 ], [ %21, %20 ], [ 0, %.loopexit ]
  ret i32 %.7
}